; ModuleID = '23/592.cpp'
source_filename = "23/592.cpp"
target datalayout = "e-m:e-p270:32:32-p271:32:32-p272:64:64-i64:64-f80:128-n8:16:32:64-S128"
target triple = "x86_64-pc-linux-gnu"

%"class.std::ios_base::Init" = type { i8 }
%"class.std::basic_istream" = type { i32 (...)**, i64, %"class.std::basic_ios" }
%"class.std::basic_ios" = type { %"class.std::ios_base", %"class.std::basic_ostream"*, i8, i8, %"class.std::basic_streambuf"*, %"class.std::ctype"*, %"class.std::num_put"*, %"class.std::num_get"* }
%"class.std::ios_base" = type { i32 (...)**, i64, i64, i32, i32, i32, %"struct.std::ios_base::_Callback_list"*, %"struct.std::ios_base::_Words", [8 x %"struct.std::ios_base::_Words"], i32, %"struct.std::ios_base::_Words"*, %"class.std::locale" }
%"struct.std::ios_base::_Callback_list" = type { %"struct.std::ios_base::_Callback_list"*, void (i32, %"class.std::ios_base"*, i32)*, i32, i32 }
%"struct.std::ios_base::_Words" = type { i8*, i64 }
%"class.std::locale" = type { %"class.std::locale::_Impl"* }
%"class.std::locale::_Impl" = type { i32, %"class.std::locale::facet"**, i64, %"class.std::locale::facet"**, i8** }
%"class.std::locale::facet" = type <{ i32 (...)**, i32, [4 x i8] }>
%"class.std::basic_ostream" = type { i32 (...)**, %"class.std::basic_ios" }
%"class.std::basic_streambuf" = type { i32 (...)**, i8*, i8*, i8*, i8*, i8*, i8*, %"class.std::locale" }
%"class.std::ctype" = type <{ %"class.std::locale::facet.base", [4 x i8], %struct.__locale_struct*, i8, [7 x i8], i32*, i32*, i16*, i8, [256 x i8], [256 x i8], i8, [6 x i8] }>
%"class.std::locale::facet.base" = type <{ i32 (...)**, i32 }>
%struct.__locale_struct = type { [13 x %struct.__locale_data*], i16*, i32*, i32*, [13 x i8*] }
%struct.__locale_data = type opaque
%"class.std::num_put" = type { %"class.std::locale::facet.base", [4 x i8] }
%"class.std::num_get" = type { %"class.std::locale::facet.base", [4 x i8] }

@_ZStL8__ioinit = internal global %"class.std::ios_base::Init" zeroinitializer, align 1
@__dso_handle = external hidden global i8
@_ZSt3cin = external dso_local global %"class.std::basic_istream", align 8
@_ZSt4cout = external dso_local global %"class.std::basic_ostream", align 8
@.str = private unnamed_addr constant [2 x i8] c" \00", align 1
@llvm.global_ctors = appending global [1 x { i32, void ()*, i8* }] [{ i32, void ()*, i8* } { i32 65535, void ()* @_GLOBAL__sub_I_592.cpp, i8* null }]

; Function Attrs: noinline uwtable
define internal void @__cxx_global_var_init() #0 section ".text.startup" {
  call void @_ZNSt8ios_base4InitC1Ev(%"class.std::ios_base::Init"* @_ZStL8__ioinit)
  %1 = call i32 @__cxa_atexit(void (i8*)* bitcast (void (%"class.std::ios_base::Init"*)* @_ZNSt8ios_base4InitD1Ev to void (i8*)*), i8* getelementptr inbounds (%"class.std::ios_base::Init", %"class.std::ios_base::Init"* @_ZStL8__ioinit, i32 0, i32 0), i8* @__dso_handle) #3
  ret void
}

declare dso_local void @_ZNSt8ios_base4InitC1Ev(%"class.std::ios_base::Init"*) unnamed_addr #1

; Function Attrs: nounwind
declare dso_local void @_ZNSt8ios_base4InitD1Ev(%"class.std::ios_base::Init"*) unnamed_addr #2

; Function Attrs: nounwind
declare dso_local i32 @__cxa_atexit(void (i8*)*, i8*, i8*) #3

; Function Attrs: noinline norecurse uwtable
define dso_local i32 @main() #4 {
  %1 = alloca i32, align 4
  %2 = alloca i32, align 4
  %3 = alloca i32, align 4
  %4 = alloca i32, align 4
  %5 = alloca [10000 x i8], align 16
  %6 = alloca [1000 x [100 x i8]], align 16
  %7 = alloca [1000 x i32], align 16
  %8 = alloca i32, align 4
  %9 = alloca i32, align 4
  store i32 0, i32* %1, align 4
  %10 = getelementptr inbounds [10000 x i8], [10000 x i8]* %5, i64 0, i64 0
  %11 = call dereferenceable(280) %"class.std::basic_istream"* @_ZNSi7getlineEPcl(%"class.std::basic_istream"* @_ZSt3cin, i8* %10, i64 10000)
  store i32 1, i32* %9, align 4
  %12 = getelementptr inbounds [10000 x i8], [10000 x i8]* %5, i64 0, i64 0
  %13 = call i64 @strlen(i8* %12) #6
  %14 = trunc i64 %13 to i32
  store i32 %14, i32* %8, align 4
  %15 = getelementptr inbounds [1000 x i32], [1000 x i32]* %7, i64 0, i64 1
  store i32 0, i32* %15, align 4
  store i32 0, i32* %2, align 4
  br label %16

16:                                               ; preds = %61, %0
  %17 = load i32, i32* %2, align 4
  %18 = load i32, i32* %8, align 4
  %19 = icmp slt i32 %17, %18
  br i1 %19, label %20, label %64

20:                                               ; preds = %16
  %21 = load i32, i32* %2, align 4
  %22 = sext i32 %21 to i64
  %23 = getelementptr inbounds [10000 x i8], [10000 x i8]* %5, i64 0, i64 %22
  %24 = load i8, i8* %23, align 1
  %25 = sext i8 %24 to i32
  %26 = icmp ne i32 %25, 32
  br i1 %26, label %27, label %50

27:                                               ; preds = %20
  %28 = load i32, i32* %2, align 4
  %29 = sext i32 %28 to i64
  %30 = getelementptr inbounds [10000 x i8], [10000 x i8]* %5, i64 0, i64 %29
  %31 = load i8, i8* %30, align 1
  %32 = load i32, i32* %9, align 4
  %33 = sext i32 %32 to i64
  %34 = getelementptr inbounds [1000 x [100 x i8]], [1000 x [100 x i8]]* %6, i64 0, i64 %33
  %35 = load i32, i32* %9, align 4
  %36 = sext i32 %35 to i64
  %37 = getelementptr inbounds [1000 x i32], [1000 x i32]* %7, i64 0, i64 %36
  %38 = load i32, i32* %37, align 4
  %39 = add nsw i32 %38, 1
  %40 = sext i32 %39 to i64
  %41 = getelementptr inbounds [100 x i8], [100 x i8]* %34, i64 0, i64 %40
  store i8 %31, i8* %41, align 1
  %42 = load i32, i32* %9, align 4
  %43 = sext i32 %42 to i64
  %44 = getelementptr inbounds [1000 x i32], [1000 x i32]* %7, i64 0, i64 %43
  %45 = load i32, i32* %44, align 4
  %46 = add nsw i32 %45, 1
  %47 = load i32, i32* %9, align 4
  %48 = sext i32 %47 to i64
  %49 = getelementptr inbounds [1000 x i32], [1000 x i32]* %7, i64 0, i64 %48
  store i32 %46, i32* %49, align 4
  br label %50

50:                                               ; preds = %27, %20
  %51 = load i32, i32* %2, align 4
  %52 = sext i32 %51 to i64
  %53 = getelementptr inbounds [10000 x i8], [10000 x i8]* %5, i64 0, i64 %52
  %54 = load i8, i8* %53, align 1
  %55 = sext i8 %54 to i32
  %56 = icmp eq i32 %55, 32
  br i1 %56, label %57, label %60

57:                                               ; preds = %50
  %58 = load i32, i32* %9, align 4
  %59 = add nsw i32 %58, 1
  store i32 %59, i32* %9, align 4
  br label %60

60:                                               ; preds = %57, %50
  br label %61

61:                                               ; preds = %60
  %62 = load i32, i32* %2, align 4
  %63 = add nsw i32 %62, 1
  store i32 %63, i32* %2, align 4
  br label %16

64:                                               ; preds = %16
  %65 = load i32, i32* %9, align 4
  store i32 %65, i32* %2, align 4
  br label %66

66:                                               ; preds = %95, %64
  %67 = load i32, i32* %2, align 4
  %68 = icmp sge i32 %67, 1
  br i1 %68, label %69, label %98

69:                                               ; preds = %66
  store i32 1, i32* %3, align 4
  br label %70

70:                                               ; preds = %86, %69
  %71 = load i32, i32* %3, align 4
  %72 = load i32, i32* %2, align 4
  %73 = sext i32 %72 to i64
  %74 = getelementptr inbounds [1000 x i32], [1000 x i32]* %7, i64 0, i64 %73
  %75 = load i32, i32* %74, align 4
  %76 = icmp sle i32 %71, %75
  br i1 %76, label %77, label %89

77:                                               ; preds = %70
  %78 = load i32, i32* %2, align 4
  %79 = sext i32 %78 to i64
  %80 = getelementptr inbounds [1000 x [100 x i8]], [1000 x [100 x i8]]* %6, i64 0, i64 %79
  %81 = load i32, i32* %3, align 4
  %82 = sext i32 %81 to i64
  %83 = getelementptr inbounds [100 x i8], [100 x i8]* %80, i64 0, i64 %82
  %84 = load i8, i8* %83, align 1
  %85 = call dereferenceable(272) %"class.std::basic_ostream"* @_ZStlsISt11char_traitsIcEERSt13basic_ostreamIcT_ES5_c(%"class.std::basic_ostream"* dereferenceable(272) @_ZSt4cout, i8 signext %84)
  br label %86

86:                                               ; preds = %77
  %87 = load i32, i32* %3, align 4
  %88 = add nsw i32 %87, 1
  store i32 %88, i32* %3, align 4
  br label %70

89:                                               ; preds = %70
  %90 = load i32, i32* %2, align 4
  %91 = icmp ne i32 %90, 1
  br i1 %91, label %92, label %94

92:                                               ; preds = %89
  %93 = call dereferenceable(272) %"class.std::basic_ostream"* @_ZStlsISt11char_traitsIcEERSt13basic_ostreamIcT_ES5_PKc(%"class.std::basic_ostream"* dereferenceable(272) @_ZSt4cout, i8* getelementptr inbounds ([2 x i8], [2 x i8]* @.str, i64 0, i64 0))
  br label %94

94:                                               ; preds = %92, %89
  br label %95

95:                                               ; preds = %94
  %96 = load i32, i32* %2, align 4
  %97 = add nsw i32 %96, -1
  store i32 %97, i32* %2, align 4
  br label %66

98:                                               ; preds = %66
  ret i32 0
}

declare dso_local dereferenceable(280) %"class.std::basic_istream"* @_ZNSi7getlineEPcl(%"class.std::basic_istream"*, i8*, i64) #1

; Function Attrs: nounwind readonly
declare dso_local i64 @strlen(i8*) #5

declare dso_local dereferenceable(272) %"class.std::basic_ostream"* @_ZStlsISt11char_traitsIcEERSt13basic_ostreamIcT_ES5_c(%"class.std::basic_ostream"* dereferenceable(272), i8 signext) #1

declare dso_local dereferenceable(272) %"class.std::basic_ostream"* @_ZStlsISt11char_traitsIcEERSt13basic_ostreamIcT_ES5_PKc(%"class.std::basic_ostream"* dereferenceable(272), i8*) #1

; Function Attrs: noinline uwtable
define internal void @_GLOBAL__sub_I_592.cpp() #0 section ".text.startup" {
  call void @__cxx_global_var_init()
  ret void
}


!llvm.module.flags = !{!0}
!llvm.ident = !{!1}

!0 = !{i32 1, !"wchar_size", i32 4}
!1 = !{!"clang version 10.0.0-4ubuntu1 "}
